; Function Attrs: mustprogress nounwind uwtable
define internal void @_ZN4node9inspector8protocol12_GLOBAL__N_128CreateFrontendWrapperRequestD2Ev(ptr nocapture noundef nonnull align 8 dereferenceable(24) %this) unnamed_addr #4 align 2 {
entry:
  store ptr getelementptr inbounds ({ [5 x ptr] }, ptr @_ZTVN4node9inspector8protocol12_GLOBAL__N_128CreateFrontendWrapperRequestE, i64 0, i32 0, i64 2), ptr %this, align 8
  %frontend_wrapper_ = getelementptr inbounds i8, ptr %this, i64 16
  %0 = load ptr, ptr %frontend_wrapper_, align 8
  %cmp.not.i = icmp eq ptr %0, null
  br i1 %cmp.not.i, label %_ZNSt10unique_ptrIN4node9inspector8protocol12_GLOBAL__N_124DeletableFrontendWrapperESt14default_deleteIS4_EED2Ev.exit, label %_ZNKSt14default_deleteIN4node9inspector8protocol12_GLOBAL__N_124DeletableFrontendWrapperEEclEPS4_.exit.i

_ZNKSt14default_deleteIN4node9inspector8protocol12_GLOBAL__N_124DeletableFrontendWrapperEEclEPS4_.exit.i: ; preds = %entry
  %vtable.i.i = load ptr, ptr %0, align 8
  %vfn.i.i = getelementptr inbounds i8, ptr %vtable.i.i, i64 8
  %1 = load ptr, ptr %vfn.i.i, align 8
  tail call void %1(ptr noundef nonnull align 8 dereferenceable(24) %0) #13
  br label %_ZNSt10unique_ptrIN4node9inspector8protocol12_GLOBAL__N_124DeletableFrontendWrapperESt14default_deleteIS4_EED2Ev.exit

_ZNSt10unique_ptrIN4node9inspector8protocol12_GLOBAL__N_124DeletableFrontendWrapperESt14default_deleteIS4_EED2Ev.exit: ; preds = %entry, %_ZNKSt14default_deleteIN4node9inspector8protocol12_GLOBAL__N_124DeletableFrontendWrapperEEclEPS4_.exit.i
  store ptr null, ptr %frontend_wrapper_, align 8
  ret void
}